target datalayout = "e-m:e-p270:32:32-p271:32:32-p272:64:64-i64:64-i128:128-f80:128-n8:16:32:64-S128"
target triple = "x86_64-pc-linux-gnu"

%"struct.icu_77::FormattedStringBuilder::Field" = type { i8 }
%"struct.icu_77::number::impl::Modifier::Parameters" = type { ptr, i32, i32 }
%"class.icu_77::number::impl::Modifier" = type { ptr }
%"class.icu_77::UObject" = type { ptr }
%"class.icu_77::UnicodeString" = type { %"class.icu_77::Replaceable", %"union.icu_77::UnicodeString::StackBufferOrFields" }
%"class.icu_77::Replaceable" = type { %"class.icu_77::UObject" }
%"union.icu_77::UnicodeString::StackBufferOrFields" = type { %struct.anon.3, [32 x i8] }
%struct.anon.3 = type { i16, i32, i32, ptr }
%"class.icu_77::number::impl::SimpleModifier" = type { %"class.icu_77::number::impl::Modifier", %"class.icu_77::UnicodeString", %"struct.icu_77::FormattedStringBuilder::Field", i8, i32, i32, i32, %"struct.icu_77::number::impl::Modifier::Parameters" }

; Function Attrs: mustprogress uwtable
define noundef i32 @_ZNK6icu_776number4impl14SimpleModifier17getCodePointCountEv(ptr noundef nonnull align 8 dereferenceable(104) %0) unnamed_addr #2 align 2 {
  %2 = alloca ptr, align 8
  %3 = alloca i32, align 4
  store ptr %0, ptr %2, align 8, !tbaa !57
  %4 = load ptr, ptr %2, align 8
  call void @llvm.lifetime.start.p0(i64 4, ptr %3) #15
  store i32 0, ptr %3, align 4, !tbaa !37
  %5 = getelementptr inbounds nuw %"class.icu_77::number::impl::SimpleModifier", ptr %4, i32 0, i32 4
  %6 = load i32, ptr %5, align 4, !tbaa !64
  %7 = icmp sgt i32 %6, 0
  br i1 %7, label %8, label %15

8:                                                ; preds = %1
  %9 = getelementptr inbounds nuw %"class.icu_77::number::impl::SimpleModifier", ptr %4, i32 0, i32 1
  %10 = getelementptr inbounds nuw %"class.icu_77::number::impl::SimpleModifier", ptr %4, i32 0, i32 4
  %11 = load i32, ptr %10, align 4, !tbaa !64
  %12 = call noundef i32 @_ZNK6icu_7713UnicodeString11countChar32Eii(ptr noundef nonnull align 8 dereferenceable(64) %9, i32 noundef 2, i32 noundef %11)
  %13 = load i32, ptr %3, align 4, !tbaa !37
  %14 = add nsw i32 %13, %12
  store i32 %14, ptr %3, align 4, !tbaa !37
  br label %15

15:                                               ; preds = %8, %1
  %16 = getelementptr inbounds nuw %"class.icu_77::number::impl::SimpleModifier", ptr %4, i32 0, i32 6
  %17 = load i32, ptr %16, align 4, !tbaa !66
  %18 = icmp sgt i32 %17, 0
  br i1 %18, label %19, label %29

19:                                               ; preds = %15
  %20 = getelementptr inbounds nuw %"class.icu_77::number::impl::SimpleModifier", ptr %4, i32 0, i32 1
  %21 = getelementptr inbounds nuw %"class.icu_77::number::impl::SimpleModifier", ptr %4, i32 0, i32 5
  %22 = load i32, ptr %21, align 8, !tbaa !65
  %23 = add nsw i32 1, %22
  %24 = getelementptr inbounds nuw %"class.icu_77::number::impl::SimpleModifier", ptr %4, i32 0, i32 6
  %25 = load i32, ptr %24, align 4, !tbaa !66
  %26 = call noundef i32 @_ZNK6icu_7713UnicodeString11countChar32Eii(ptr noundef nonnull align 8 dereferenceable(64) %20, i32 noundef %23, i32 noundef %25)
  %27 = load i32, ptr %3, align 4, !tbaa !37
  %28 = add nsw i32 %27, %26
  store i32 %28, ptr %3, align 4, !tbaa !37
  br label %29

29:                                               ; preds = %19, %15
  %30 = load i32, ptr %3, align 4, !tbaa !37
  call void @llvm.lifetime.end.p0(i64 4, ptr %3) #15
  ret i32 %30
}