; Function Attrs: mustprogress uwtable
define noundef i32 @_ZNK6icu_776number4impl14SimpleModifier17getCodePointCountEv(ptr noundef nonnull align 8 dereferenceable(104) %0) unnamed_addr #4 align 2 {
  %2 = getelementptr inbounds nuw i8, ptr %0, i64 76
  %3 = load i32, ptr %2, align 4, !tbaa !39
  %4 = icmp sgt i32 %3, 0
  br i1 %4, label %5, label %8

5:                                                ; preds = %1
  %6 = getelementptr inbounds nuw i8, ptr %0, i64 8
  %7 = tail call noundef i32 @_ZNK6icu_7713UnicodeString11countChar32Eii(ptr noundef nonnull align 8 dereferenceable(64) %6, i32 noundef 2, i32 noundef %3)
  br label %8

8:                                                ; preds = %5, %1
  %.0 = phi i32 [ %7, %5 ], [ 0, %1 ]
  %9 = getelementptr inbounds nuw i8, ptr %0, i64 84
  %10 = load i32, ptr %9, align 4, !tbaa !41
  %11 = icmp sgt i32 %10, 0
  br i1 %11, label %12, label %19

12:                                               ; preds = %8
  %13 = getelementptr inbounds nuw i8, ptr %0, i64 8
  %14 = getelementptr inbounds nuw i8, ptr %0, i64 80
  %15 = load i32, ptr %14, align 8, !tbaa !40
  %16 = add nsw i32 %15, 1
  %17 = tail call noundef i32 @_ZNK6icu_7713UnicodeString11countChar32Eii(ptr noundef nonnull align 8 dereferenceable(64) %13, i32 noundef %16, i32 noundef %10)
  %18 = add nsw i32 %17, %.0
  br label %19

19:                                               ; preds = %12, %8
  %.1 = phi i32 [ %18, %12 ], [ %.0, %8 ]
  ret i32 %.1
}